target datalayout = "e-m:e-p270:32:32-p271:32:32-p272:64:64-i64:64-i128:128-f80:128-n8:16:32:64-S128"
target triple = "x86_64-pc-linux-gnu"

%struct.SDL_GPUDevice = type { ptr, ptr, ptr, ptr, ptr, ptr, ptr, ptr, ptr, ptr, ptr, ptr, ptr, ptr, ptr, ptr, ptr, ptr, ptr, ptr, ptr, ptr, ptr, ptr, ptr, ptr, ptr, ptr, ptr, ptr, ptr, ptr, ptr, ptr, ptr, ptr, ptr, ptr, ptr, ptr, ptr, ptr, ptr, ptr, ptr, ptr, ptr, ptr, ptr, ptr, ptr, ptr, ptr, ptr, ptr, ptr, ptr, ptr, ptr, ptr, ptr, ptr, ptr, ptr, ptr, ptr, ptr, ptr, ptr, ptr, ptr, ptr, ptr, ptr, ptr, ptr, ptr, ptr, ptr, ptr, ptr, ptr, ptr, ptr, ptr, i32, i8 }
%struct.CommandBufferCommonHeader = type { ptr, %struct.RenderPass, i8, %struct.Pass, i8, %struct.Pass, i8, i8, i8 }
%struct.RenderPass = type { ptr, i8, [4 x ptr], i32, ptr }
%struct.Pass = type { ptr, i8 }
%struct.TextureCommonHeader = type { %struct.SDL_GPUTextureCreateInfo }
%struct.SDL_GPUTextureCreateInfo = type { i32, i32, i32, i32, i32, i32, i32, i32, i32 }

@.str.4 = private unnamed_addr constant [26 x i8] c"Parameter '%s' is invalid\00", align 1
@.str.8 = private unnamed_addr constant [103 x i8] c"generated/home/dtcxzyw/WorkSpace/Projects/compilers/llvm-opt-benchmark/bench/sdl/SDL/src/gpu/SDL_gpu.c\00", align 1
@.str.178 = private unnamed_addr constant [8 x i8] c"texture\00", align 1
@.str.179 = private unnamed_addr constant [15 x i8] c"command_buffer\00", align 1
@SDL_GenerateMipmapsForGPUTexture_REAL.sdl_assert_data = internal global { i8, [3 x i8], i32, ptr, ptr, i32, [4 x i8], ptr, ptr } { i8 0, [3 x i8] zeroinitializer, i32 0, ptr @.str.181, ptr null, i32 0, [4 x i8] zeroinitializer, ptr null, ptr null }, align 8
@__func__.SDL_GenerateMipmapsForGPUTexture_REAL = private unnamed_addr constant [38 x i8] c"SDL_GenerateMipmapsForGPUTexture_REAL\00", align 1
@SDL_GenerateMipmapsForGPUTexture_REAL.sdl_assert_data.319 = internal global { i8, [3 x i8], i32, ptr, ptr, i32, [4 x i8], ptr, ptr } { i8 0, [3 x i8] zeroinitializer, i32 0, ptr @.str.320, ptr null, i32 0, [4 x i8] zeroinitializer, ptr null, ptr null }, align 8
@SDL_GenerateMipmapsForGPUTexture_REAL.sdl_assert_data.322 = internal global { i8, [3 x i8], i32, ptr, ptr, i32, [4 x i8], ptr, ptr } { i8 0, [3 x i8] zeroinitializer, i32 0, ptr @.str.323, ptr null, i32 0, [4 x i8] zeroinitializer, ptr null, ptr null }, align 8
@SDL_GenerateMipmapsForGPUTexture_REAL.sdl_assert_data.325 = internal global { i8, [3 x i8], i32, ptr, ptr, i32, [4 x i8], ptr, ptr } { i8 0, [3 x i8] zeroinitializer, i32 0, ptr @.str.326, ptr null, i32 0, [4 x i8] zeroinitializer, ptr null, ptr null }, align 8

; Function Attrs: nounwind uwtable
define hidden void @SDL_GenerateMipmapsForGPUTexture_REAL(ptr noundef %0, ptr noundef %1) #0 {
  %3 = alloca ptr, align 8
  %4 = alloca ptr, align 8
  %5 = alloca i32, align 4
  %6 = alloca i32, align 4
  %7 = alloca i32, align 4
  %8 = alloca ptr, align 8
  %9 = alloca i32, align 4
  %10 = alloca i32, align 4
  %11 = alloca ptr, align 8
  %12 = alloca ptr, align 8
  store ptr %0, ptr %3, align 8
  store ptr %1, ptr %4, align 8
  %13 = load ptr, ptr %3, align 8
  %14 = icmp eq ptr %13, null
  br i1 %14, label %15, label %17

15:                                               ; preds = %2
  %16 = call zeroext i1 (ptr, ...) @SDL_SetError_REAL(ptr noundef @.str.4, ptr noundef @.str.179)
  br label %170

17:                                               ; preds = %2
  %18 = load ptr, ptr %4, align 8
  %19 = icmp eq ptr %18, null
  br i1 %19, label %20, label %22

20:                                               ; preds = %17
  %21 = call zeroext i1 (ptr, ...) @SDL_SetError_REAL(ptr noundef @.str.4, ptr noundef @.str.178)
  br label %170

22:                                               ; preds = %17
  %23 = load ptr, ptr %3, align 8
  %24 = getelementptr inbounds nuw %struct.CommandBufferCommonHeader, ptr %23, i32 0, i32 0
  %25 = load ptr, ptr %24, align 8
  %26 = getelementptr inbounds nuw %struct.SDL_GPUDevice, ptr %25, i32 0, i32 86
  %27 = load i8, ptr %26, align 4, !range !5, !noundef !6
  %28 = trunc i8 %27 to i1
  br i1 %28, label %29, label %152

29:                                               ; preds = %22
  %30 = load ptr, ptr %3, align 8
  %31 = getelementptr inbounds nuw %struct.CommandBufferCommonHeader, ptr %30, i32 0, i32 7
  %32 = load i8, ptr %31, align 1, !range !5, !noundef !6
  %33 = trunc i8 %32 to i1
  br i1 %33, label %34, label %51

34:                                               ; preds = %29
  br label %35

35:                                               ; preds = %34
  br label %36

36:                                               ; preds = %35, %47
  call void @llvm.lifetime.start.p0(i64 4, ptr %5) #6
  %37 = call i32 @SDL_ReportAssertion_REAL(ptr noundef @SDL_GenerateMipmapsForGPUTexture_REAL.sdl_assert_data, ptr noundef @__func__.SDL_GenerateMipmapsForGPUTexture_REAL, ptr noundef @.str.8, i32 noundef 2719)
  store i32 %37, ptr %5, align 4
  %38 = load i32, ptr %5, align 4
  %39 = icmp eq i32 %38, 0
  br i1 %39, label %40, label %41

40:                                               ; preds = %36
  store i32 4, ptr %6, align 4
  br label %47

41:                                               ; preds = %36
  %42 = load i32, ptr %5, align 4
  %43 = icmp eq i32 %42, 1
  br i1 %43, label %44, label %45

44:                                               ; preds = %41
  call void @llvm.debugtrap()
  br label %45

45:                                               ; preds = %44, %41
  br label %46

46:                                               ; preds = %45
  store i32 5, ptr %6, align 4
  br label %47

47:                                               ; preds = %46, %40
  call void @llvm.lifetime.end.p0(i64 4, ptr %5) #6
  %48 = load i32, ptr %6, align 4
  switch i32 %48, label %171 [
    i32 4, label %36
    i32 5, label %49
  ]

49:                                               ; preds = %47
  br label %50

50:                                               ; preds = %49
  br label %170

51:                                               ; preds = %29
  %52 = load ptr, ptr %3, align 8
  %53 = getelementptr inbounds nuw %struct.CommandBufferCommonHeader, ptr %52, i32 0, i32 1
  %54 = getelementptr inbounds nuw %struct.RenderPass, ptr %53, i32 0, i32 1
  %55 = load i8, ptr %54, align 8, !range !5, !noundef !6
  %56 = trunc i8 %55 to i1
  br i1 %56, label %69, label %57

57:                                               ; preds = %51
  %58 = load ptr, ptr %3, align 8
  %59 = getelementptr inbounds nuw %struct.CommandBufferCommonHeader, ptr %58, i32 0, i32 3
  %60 = getelementptr inbounds nuw %struct.Pass, ptr %59, i32 0, i32 1
  %61 = load i8, ptr %60, align 8, !range !5, !noundef !6
  %62 = trunc i8 %61 to i1
  br i1 %62, label %69, label %63

63:                                               ; preds = %57
  %64 = load ptr, ptr %3, align 8
  %65 = getelementptr inbounds nuw %struct.CommandBufferCommonHeader, ptr %64, i32 0, i32 5
  %66 = getelementptr inbounds nuw %struct.Pass, ptr %65, i32 0, i32 1
  %67 = load i8, ptr %66, align 8, !range !5, !noundef !6
  %68 = trunc i8 %67 to i1
  br i1 %68, label %69, label %86

69:                                               ; preds = %63, %57, %51
  br label %70

70:                                               ; preds = %69
  br label %71

71:                                               ; preds = %70, %82
  call void @llvm.lifetime.start.p0(i64 4, ptr %7) #6
  %72 = call i32 @SDL_ReportAssertion_REAL(ptr noundef @SDL_GenerateMipmapsForGPUTexture_REAL.sdl_assert_data.319, ptr noundef @__func__.SDL_GenerateMipmapsForGPUTexture_REAL, ptr noundef @.str.8, i32 noundef 2720)
  store i32 %72, ptr %7, align 4
  %73 = load i32, ptr %7, align 4
  %74 = icmp eq i32 %73, 0
  br i1 %74, label %75, label %76

75:                                               ; preds = %71
  store i32 8, ptr %6, align 4
  br label %82

76:                                               ; preds = %71
  %77 = load i32, ptr %7, align 4
  %78 = icmp eq i32 %77, 1
  br i1 %78, label %79, label %80

79:                                               ; preds = %76
  call void @llvm.debugtrap()
  br label %80

80:                                               ; preds = %79, %76
  br label %81

81:                                               ; preds = %80
  store i32 9, ptr %6, align 4
  br label %82

82:                                               ; preds = %81, %75
  call void @llvm.lifetime.end.p0(i64 4, ptr %7) #6
  %83 = load i32, ptr %6, align 4
  switch i32 %83, label %171 [
    i32 8, label %71
    i32 9, label %84
  ]

84:                                               ; preds = %82
  br label %85

85:                                               ; preds = %84
  br label %170

86:                                               ; preds = %63
  call void @llvm.lifetime.start.p0(i64 8, ptr %8) #6
  %87 = load ptr, ptr %4, align 8
  store ptr %87, ptr %8, align 8
  %88 = load ptr, ptr %8, align 8
  %89 = getelementptr inbounds nuw %struct.TextureCommonHeader, ptr %88, i32 0, i32 0
  %90 = getelementptr inbounds nuw %struct.SDL_GPUTextureCreateInfo, ptr %89, i32 0, i32 6
  %91 = load i32, ptr %90, align 4
  %92 = icmp ule i32 %91, 1
  br i1 %92, label %93, label %112

93:                                               ; preds = %86
  br label %94

94:                                               ; preds = %93
  br label %95

95:                                               ; preds = %107, %94
  br label %96

96:                                               ; preds = %95
  call void @llvm.lifetime.start.p0(i64 4, ptr %9) #6
  %97 = call i32 @SDL_ReportAssertion_REAL(ptr noundef @SDL_GenerateMipmapsForGPUTexture_REAL.sdl_assert_data.322, ptr noundef @__func__.SDL_GenerateMipmapsForGPUTexture_REAL, ptr noundef @.str.8, i32 noundef 2724)
  store i32 %97, ptr %9, align 4
  %98 = load i32, ptr %9, align 4
  %99 = icmp eq i32 %98, 0
  br i1 %99, label %100, label %101

100:                                              ; preds = %96
  store i32 12, ptr %6, align 4
  br label %107

101:                                              ; preds = %96
  %102 = load i32, ptr %9, align 4
  %103 = icmp eq i32 %102, 1
  br i1 %103, label %104, label %105

104:                                              ; preds = %101
  call void @llvm.debugtrap()
  br label %105

105:                                              ; preds = %104, %101
  br label %106

106:                                              ; preds = %105
  store i32 13, ptr %6, align 4
  br label %107

107:                                              ; preds = %106, %100
  call void @llvm.lifetime.end.p0(i64 4, ptr %9) #6
  %108 = load i32, ptr %6, align 4
  switch i32 %108, label %171 [
    i32 12, label %95
    i32 13, label %109
  ]

109:                                              ; preds = %107
  br label %110

110:                                              ; preds = %109
  br label %111

111:                                              ; preds = %110
  store i32 1, ptr %6, align 4
  br label %149

112:                                              ; preds = %86
  %113 = load ptr, ptr %8, align 8
  %114 = getelementptr inbounds nuw %struct.TextureCommonHeader, ptr %113, i32 0, i32 0
  %115 = getelementptr inbounds nuw %struct.SDL_GPUTextureCreateInfo, ptr %114, i32 0, i32 2
  %116 = load i32, ptr %115, align 4
  %117 = and i32 %116, 1
  %118 = icmp ne i32 %117, 0
  br i1 %118, label %119, label %126

119:                                              ; preds = %112
  %120 = load ptr, ptr %8, align 8
  %121 = getelementptr inbounds nuw %struct.TextureCommonHeader, ptr %120, i32 0, i32 0
  %122 = getelementptr inbounds nuw %struct.SDL_GPUTextureCreateInfo, ptr %121, i32 0, i32 2
  %123 = load i32, ptr %122, align 4
  %124 = and i32 %123, 2
  %125 = icmp ne i32 %124, 0
  br i1 %125, label %145, label %126

126:                                              ; preds = %119, %112
  br label %127

127:                                              ; preds = %126
  br label %128

128:                                              ; preds = %140, %127
  br label %129

129:                                              ; preds = %128
  call void @llvm.lifetime.start.p0(i64 4, ptr %10) #6
  %130 = call i32 @SDL_ReportAssertion_REAL(ptr noundef @SDL_GenerateMipmapsForGPUTexture_REAL.sdl_assert_data.325, ptr noundef @__func__.SDL_GenerateMipmapsForGPUTexture_REAL, ptr noundef @.str.8, i32 noundef 2729)
  store i32 %130, ptr %10, align 4
  %131 = load i32, ptr %10, align 4
  %132 = icmp eq i32 %131, 0
  br i1 %132, label %133, label %134

133:                                              ; preds = %129
  store i32 16, ptr %6, align 4
  br label %140

134:                                              ; preds = %129
  %135 = load i32, ptr %10, align 4
  %136 = icmp eq i32 %135, 1
  br i1 %136, label %137, label %138

137:                                              ; preds = %134
  call void @llvm.debugtrap()
  br label %138

138:                                              ; preds = %137, %134
  br label %139

139:                                              ; preds = %138
  store i32 17, ptr %6, align 4
  br label %140

140:                                              ; preds = %139, %133
  call void @llvm.lifetime.end.p0(i64 4, ptr %10) #6
  %141 = load i32, ptr %6, align 4
  switch i32 %141, label %171 [
    i32 16, label %128
    i32 17, label %142
  ]

142:                                              ; preds = %140
  br label %143

143:                                              ; preds = %142
  br label %144

144:                                              ; preds = %143
  store i32 1, ptr %6, align 4
  br label %149

145:                                              ; preds = %119
  call void @llvm.lifetime.start.p0(i64 8, ptr %11) #6
  %146 = load ptr, ptr %3, align 8
  store ptr %146, ptr %11, align 8
  %147 = load ptr, ptr %11, align 8
  %148 = getelementptr inbounds nuw %struct.CommandBufferCommonHeader, ptr %147, i32 0, i32 8
  store i8 1, ptr %148, align 2
  call void @llvm.lifetime.end.p0(i64 8, ptr %11) #6
  store i32 0, ptr %6, align 4
  br label %149

149:                                              ; preds = %145, %144, %111
  call void @llvm.lifetime.end.p0(i64 8, ptr %8) #6
  %150 = load i32, ptr %6, align 4
  switch i32 %150, label %171 [
    i32 0, label %151
    i32 1, label %170
  ]

151:                                              ; preds = %149
  br label %152

152:                                              ; preds = %151, %22
  %153 = load ptr, ptr %3, align 8
  %154 = getelementptr inbounds nuw %struct.CommandBufferCommonHeader, ptr %153, i32 0, i32 0
  %155 = load ptr, ptr %154, align 8
  %156 = getelementptr inbounds nuw %struct.SDL_GPUDevice, ptr %155, i32 0, i32 58
  %157 = load ptr, ptr %156, align 8
  %158 = load ptr, ptr %3, align 8
  %159 = load ptr, ptr %4, align 8
  call void %157(ptr noundef %158, ptr noundef %159)
  %160 = load ptr, ptr %3, align 8
  %161 = getelementptr inbounds nuw %struct.CommandBufferCommonHeader, ptr %160, i32 0, i32 0
  %162 = load ptr, ptr %161, align 8
  %163 = getelementptr inbounds nuw %struct.SDL_GPUDevice, ptr %162, i32 0, i32 86
  %164 = load i8, ptr %163, align 4, !range !5, !noundef !6
  %165 = trunc i8 %164 to i1
  br i1 %165, label %166, label %170

166:                                              ; preds = %152
  call void @llvm.lifetime.start.p0(i64 8, ptr %12) #6
  %167 = load ptr, ptr %3, align 8
  store ptr %167, ptr %12, align 8
  %168 = load ptr, ptr %12, align 8
  %169 = getelementptr inbounds nuw %struct.CommandBufferCommonHeader, ptr %168, i32 0, i32 8
  store i8 0, ptr %169, align 2
  call void @llvm.lifetime.end.p0(i64 8, ptr %12) #6
  br label %170

170:                                              ; preds = %15, %20, %50, %85, %149, %166, %152
  ret void

171:                                              ; preds = %149, %140, %107, %82, %47
  unreachable
}