; Function Attrs: nounwind uwtable
define hidden void @SDL_GenerateMipmapsForGPUTexture_REAL(ptr noundef %0, ptr noundef %1) local_unnamed_addr #0 {
  %3 = icmp eq ptr %0, null
  br i1 %3, label %4, label %6

4:                                                ; preds = %2
  %5 = tail call zeroext i1 (ptr, ...) @SDL_SetError_REAL(ptr noundef nonnull @.str.4, ptr noundef nonnull @.str.179) #7
  br label %.thread

6:                                                ; preds = %2
  %7 = icmp eq ptr %1, null
  br i1 %7, label %8, label %10

8:                                                ; preds = %6
  %9 = tail call zeroext i1 (ptr, ...) @SDL_SetError_REAL(ptr noundef nonnull @.str.4, ptr noundef nonnull @.str.178) #7
  br label %.thread

10:                                               ; preds = %6
  %11 = load ptr, ptr %0, align 8
  %12 = getelementptr inbounds nuw i8, ptr %11, i64 684
  %13 = load i8, ptr %12, align 4, !range !5, !noundef !6
  %14 = trunc nuw i8 %13 to i1
  br i1 %14, label %15, label %50

15:                                               ; preds = %10
  %16 = getelementptr inbounds nuw i8, ptr %0, i64 121
  %17 = load i8, ptr %16, align 1, !range !5, !noundef !6
  %18 = trunc nuw i8 %17 to i1
  br i1 %18, label %.preheader, label %21

.preheader:                                       ; preds = %15, %.preheader
  %19 = tail call i32 @SDL_ReportAssertion_REAL(ptr noundef nonnull @SDL_GenerateMipmapsForGPUTexture_REAL.sdl_assert_data, ptr noundef nonnull @__func__.SDL_GenerateMipmapsForGPUTexture_REAL, ptr noundef nonnull @.str.8, i32 noundef 2719) #7
  switch i32 %19, label %.thread [
    i32 0, label %.preheader
    i32 1, label %20
  ]

20:                                               ; preds = %.preheader
  tail call void @llvm.debugtrap()
  br label %.thread

21:                                               ; preds = %15
  %22 = getelementptr inbounds nuw i8, ptr %0, i64 16
  %23 = load i8, ptr %22, align 8, !range !5, !noundef !6
  %24 = trunc nuw i8 %23 to i1
  br i1 %24, label %.preheader78, label %25

25:                                               ; preds = %21
  %26 = getelementptr inbounds nuw i8, ptr %0, i64 88
  %27 = load i8, ptr %26, align 8, !range !5, !noundef !6
  %28 = trunc nuw i8 %27 to i1
  br i1 %28, label %.preheader78, label %29

29:                                               ; preds = %25
  %30 = getelementptr inbounds nuw i8, ptr %0, i64 112
  %31 = load i8, ptr %30, align 8, !range !5, !noundef !6
  %32 = trunc nuw i8 %31 to i1
  br i1 %32, label %.preheader78, label %36

.preheader78:                                     ; preds = %21, %25, %29
  br label %33

33:                                               ; preds = %.preheader78, %33
  %34 = tail call i32 @SDL_ReportAssertion_REAL(ptr noundef nonnull @SDL_GenerateMipmapsForGPUTexture_REAL.sdl_assert_data.319, ptr noundef nonnull @__func__.SDL_GenerateMipmapsForGPUTexture_REAL, ptr noundef nonnull @.str.8, i32 noundef 2720) #7
  switch i32 %34, label %.thread [
    i32 0, label %33
    i32 1, label %35
  ]

35:                                               ; preds = %33
  tail call void @llvm.debugtrap()
  br label %.thread

36:                                               ; preds = %29
  %37 = getelementptr inbounds nuw i8, ptr %1, i64 24
  %38 = load i32, ptr %37, align 4
  %39 = icmp ult i32 %38, 2
  br i1 %39, label %.preheader65, label %42

.preheader65:                                     ; preds = %36, %.preheader65
  %40 = tail call i32 @SDL_ReportAssertion_REAL(ptr noundef nonnull @SDL_GenerateMipmapsForGPUTexture_REAL.sdl_assert_data.322, ptr noundef nonnull @__func__.SDL_GenerateMipmapsForGPUTexture_REAL, ptr noundef nonnull @.str.8, i32 noundef 2724) #7
  switch i32 %40, label %.thread [
    i32 0, label %.preheader65
    i32 1, label %41
  ]

41:                                               ; preds = %.preheader65
  tail call void @llvm.debugtrap()
  br label %.thread

42:                                               ; preds = %36
  %43 = getelementptr inbounds nuw i8, ptr %1, i64 8
  %44 = load i32, ptr %43, align 4
  %45 = and i32 %44, 3
  %or.cond.not = icmp eq i32 %45, 3
  br i1 %or.cond.not, label %48, label %.preheader67

.preheader67:                                     ; preds = %42, %.preheader67
  %46 = tail call i32 @SDL_ReportAssertion_REAL(ptr noundef nonnull @SDL_GenerateMipmapsForGPUTexture_REAL.sdl_assert_data.325, ptr noundef nonnull @__func__.SDL_GenerateMipmapsForGPUTexture_REAL, ptr noundef nonnull @.str.8, i32 noundef 2729) #7
  switch i32 %46, label %.thread [
    i32 0, label %.preheader67
    i32 1, label %47
  ]

47:                                               ; preds = %.preheader67
  tail call void @llvm.debugtrap()
  br label %.thread

48:                                               ; preds = %42
  %49 = getelementptr inbounds nuw i8, ptr %0, i64 122
  store i8 1, ptr %49, align 2
  br label %50

50:                                               ; preds = %48, %10
  %51 = getelementptr inbounds nuw i8, ptr %11, i64 464
  %52 = load ptr, ptr %51, align 8
  tail call void %52(ptr noundef nonnull %0, ptr noundef nonnull %1) #7
  %53 = load ptr, ptr %0, align 8
  %54 = getelementptr inbounds nuw i8, ptr %53, i64 684
  %55 = load i8, ptr %54, align 4, !range !5, !noundef !6
  %56 = trunc nuw i8 %55 to i1
  br i1 %56, label %57, label %.thread

57:                                               ; preds = %50
  %58 = getelementptr inbounds nuw i8, ptr %0, i64 122
  store i8 0, ptr %58, align 2
  br label %.thread

.thread:                                          ; preds = %.preheader67, %.preheader65, %33, %.preheader, %47, %41, %35, %20, %57, %50, %8, %4
  ret void
}